target datalayout = "e-m:e-p270:32:32-p271:32:32-p272:64:64-i64:64-i128:128-f80:128-n8:16:32:64-S128"
target triple = "x86_64-unknown-linux-gnu"

%"class.proxygen::GenericFilter" = type { %"class.proxygen::HTTPCodec", %"class.proxygen::HTTPCodec::Callback", i8, i8, ptr, ptr, ptr, ptr, ptr, ptr }
%"class.proxygen::HTTPCodec" = type { ptr }
%"class.proxygen::HTTPCodec::Callback" = type { ptr }

; Function Attrs: mustprogress uwtable
define noundef signext i8 @_ZNK8proxygen26PassThroughHTTPCodecFilter23mapDependencyToPriorityEm(ptr noundef nonnull align 8 dereferenceable(72) %this, i64 noundef %parent) unnamed_addr #4 align 2 {
entry:
  %this.addr = alloca ptr, align 8
  %parent.addr = alloca i64, align 8
  store ptr %this, ptr %this.addr, align 8
  store i64 %parent, ptr %parent.addr, align 8
  %this1 = load ptr, ptr %this.addr, align 8
  %call_ = getelementptr inbounds %"class.proxygen::GenericFilter", ptr %this1, i32 0, i32 4
  %0 = load ptr, ptr %call_, align 8
  %1 = load i64, ptr %parent.addr, align 8
  %vtable = load ptr, ptr %0, align 8
  %vfn = getelementptr inbounds ptr, ptr %vtable, i64 53
  %2 = load ptr, ptr %vfn, align 8
  %call = call noundef signext i8 %2(ptr noundef nonnull align 8 dereferenceable(8) %0, i64 noundef %1)
  ret i8 %call
}