; Function Attrs: mustprogress uwtable
define noundef signext i8 @_ZNK8proxygen26PassThroughHTTPCodecFilter23mapDependencyToPriorityEm(ptr nocapture noundef nonnull readonly align 8 dereferenceable(72) %this, i64 noundef %parent) unnamed_addr #3 align 2 {
entry:
  %call_ = getelementptr inbounds i8, ptr %this, i64 24
  %0 = load ptr, ptr %call_, align 8
  %vtable = load ptr, ptr %0, align 8
  %vfn = getelementptr inbounds i8, ptr %vtable, i64 424
  %1 = load ptr, ptr %vfn, align 8
  %call = tail call noundef signext i8 %1(ptr noundef nonnull align 8 dereferenceable(8) %0, i64 noundef %parent)
  ret i8 %call
}